target datalayout = "e-m:e-p270:32:32-p271:32:32-p272:64:64-i64:64-i128:128-f80:128-n8:16:32:64-S128"
target triple = "x86_64-pc-linux-gnu"

%struct.AVFilterContext = type { ptr, ptr, ptr, ptr, ptr, i32, ptr, ptr, i32, ptr, ptr, i32, i32, ptr, ptr, ptr, ptr, i32, ptr, i32, i32 }
%struct.ASuperCutContext = type { ptr, double, double, double, i32, i32, i32, [10 x %struct.BiquadCoeffs], ptr, ptr }
%struct.BiquadCoeffs = type { double, double, double, double, double }
%struct.ThreadData = type { ptr, ptr }
%struct.AVChannelLayout = type { i32, i32, %union.anon.1, ptr }
%union.anon.1 = type { i64 }
%struct.AVRational = type { i32, i32 }
%struct.AVFrame = type { [8 x ptr], [8 x i32], ptr, i32, i32, i32, i32, i32, %struct.AVRational, i64, i64, %struct.AVRational, i32, ptr, i32, i32, [8 x ptr], ptr, i32, ptr, i32, i32, i32, i32, i32, i32, i32, i64, ptr, i32, ptr, ptr, i64, i64, i64, i64, ptr, %struct.AVChannelLayout, i64 }

; Function Attrs: nounwind uwtable
define internal i32 @filter_channels_dblp(ptr noundef %0, ptr noundef %1, i32 noundef %2, i32 noundef %3) #1 {
  %5 = alloca ptr, align 8
  %6 = alloca ptr, align 8
  %7 = alloca i32, align 4
  %8 = alloca i32, align 4
  %9 = alloca ptr, align 8
  %10 = alloca ptr, align 8
  %11 = alloca ptr, align 8
  %12 = alloca ptr, align 8
  %13 = alloca i32, align 4
  %14 = alloca i32, align 4
  %15 = alloca double, align 8
  %16 = alloca i32, align 4
  %17 = alloca i32, align 4
  %18 = alloca ptr, align 8
  %19 = alloca ptr, align 8
  %20 = alloca i32, align 4
  %21 = alloca ptr, align 8
  %22 = alloca double, align 8
  %23 = alloca double, align 8
  %24 = alloca double, align 8
  %25 = alloca double, align 8
  %26 = alloca double, align 8
  %27 = alloca ptr, align 8
  %28 = alloca i32, align 4
  %29 = alloca double, align 8
  %30 = alloca double, align 8
  store ptr %0, ptr %5, align 8, !tbaa !4
  store ptr %1, ptr %6, align 8, !tbaa !55
  store i32 %2, ptr %7, align 4, !tbaa !25
  store i32 %3, ptr %8, align 4, !tbaa !25
  call void @llvm.lifetime.start.p0(i64 8, ptr %9) #6
  %31 = load ptr, ptr %5, align 8, !tbaa !4
  %32 = getelementptr inbounds nuw %struct.AVFilterContext, ptr %31, i32 0, i32 9
  %33 = load ptr, ptr %32, align 8, !tbaa !9
  store ptr %33, ptr %9, align 8, !tbaa !22
  call void @llvm.lifetime.start.p0(i64 8, ptr %10) #6
  %34 = load ptr, ptr %6, align 8, !tbaa !55
  store ptr %34, ptr %10, align 8, !tbaa !56
  call void @llvm.lifetime.start.p0(i64 8, ptr %11) #6
  %35 = load ptr, ptr %10, align 8, !tbaa !56
  %36 = getelementptr inbounds nuw %struct.ThreadData, ptr %35, i32 0, i32 1
  %37 = load ptr, ptr %36, align 8, !tbaa !50
  store ptr %37, ptr %11, align 8, !tbaa !28
  call void @llvm.lifetime.start.p0(i64 8, ptr %12) #6
  %38 = load ptr, ptr %10, align 8, !tbaa !56
  %39 = getelementptr inbounds nuw %struct.ThreadData, ptr %38, i32 0, i32 0
  %40 = load ptr, ptr %39, align 8, !tbaa !48
  store ptr %40, ptr %12, align 8, !tbaa !28
  call void @llvm.lifetime.start.p0(i64 4, ptr %13) #6
  %41 = load ptr, ptr %12, align 8, !tbaa !28
  %42 = getelementptr inbounds nuw %struct.AVFrame, ptr %41, i32 0, i32 37
  %43 = getelementptr inbounds nuw %struct.AVChannelLayout, ptr %42, i32 0, i32 1
  %44 = load i32, ptr %43, align 4, !tbaa !58
  %45 = load i32, ptr %7, align 4, !tbaa !25
  %46 = mul nsw i32 %44, %45
  %47 = load i32, ptr %8, align 4, !tbaa !25
  %48 = sdiv i32 %46, %47
  store i32 %48, ptr %13, align 4, !tbaa !25
  call void @llvm.lifetime.start.p0(i64 4, ptr %14) #6
  %49 = load ptr, ptr %12, align 8, !tbaa !28
  %50 = getelementptr inbounds nuw %struct.AVFrame, ptr %49, i32 0, i32 37
  %51 = getelementptr inbounds nuw %struct.AVChannelLayout, ptr %50, i32 0, i32 1
  %52 = load i32, ptr %51, align 4, !tbaa !58
  %53 = load i32, ptr %7, align 4, !tbaa !25
  %54 = add nsw i32 %53, 1
  %55 = mul nsw i32 %52, %54
  %56 = load i32, ptr %8, align 4, !tbaa !25
  %57 = sdiv i32 %55, %56
  store i32 %57, ptr %14, align 4, !tbaa !25
  call void @llvm.lifetime.start.p0(i64 8, ptr %15) #6
  %58 = load ptr, ptr %9, align 8, !tbaa !22
  %59 = getelementptr inbounds nuw %struct.ASuperCutContext, ptr %58, i32 0, i32 2
  %60 = load double, ptr %59, align 8, !tbaa !59
  store double %60, ptr %15, align 8, !tbaa !60
  call void @llvm.lifetime.start.p0(i64 4, ptr %16) #6
  %61 = load i32, ptr %13, align 4, !tbaa !25
  store i32 %61, ptr %16, align 4, !tbaa !25
  br label %62

62:                                               ; preds = %187, %4
  %63 = load i32, ptr %16, align 4, !tbaa !25
  %64 = load i32, ptr %14, align 4, !tbaa !25
  %65 = icmp slt i32 %63, %64
  br i1 %65, label %67, label %66

66:                                               ; preds = %62
  store i32 2, ptr %17, align 4
  call void @llvm.lifetime.end.p0(i64 4, ptr %16) #6
  br label %190

67:                                               ; preds = %62
  call void @llvm.lifetime.start.p0(i64 8, ptr %18) #6
  %68 = load ptr, ptr %12, align 8, !tbaa !28
  %69 = getelementptr inbounds nuw %struct.AVFrame, ptr %68, i32 0, i32 2
  %70 = load ptr, ptr %69, align 8, !tbaa !61
  %71 = load i32, ptr %16, align 4, !tbaa !25
  %72 = sext i32 %71 to i64
  %73 = getelementptr inbounds ptr, ptr %70, i64 %72
  %74 = load ptr, ptr %73, align 8, !tbaa !24
  store ptr %74, ptr %18, align 8, !tbaa !79
  call void @llvm.lifetime.start.p0(i64 8, ptr %19) #6
  %75 = load ptr, ptr %11, align 8, !tbaa !28
  %76 = getelementptr inbounds nuw %struct.AVFrame, ptr %75, i32 0, i32 2
  %77 = load ptr, ptr %76, align 8, !tbaa !61
  %78 = load i32, ptr %16, align 4, !tbaa !25
  %79 = sext i32 %78 to i64
  %80 = getelementptr inbounds ptr, ptr %77, i64 %79
  %81 = load ptr, ptr %80, align 8, !tbaa !24
  store ptr %81, ptr %19, align 8, !tbaa !79
  call void @llvm.lifetime.start.p0(i64 4, ptr %20) #6
  store i32 0, ptr %20, align 4, !tbaa !25
  br label %82

82:                                               ; preds = %183, %67
  %83 = load i32, ptr %20, align 4, !tbaa !25
  %84 = load ptr, ptr %9, align 8, !tbaa !22
  %85 = getelementptr inbounds nuw %struct.ASuperCutContext, ptr %84, i32 0, i32 5
  %86 = load i32, ptr %85, align 4, !tbaa !64
  %87 = icmp slt i32 %83, %86
  br i1 %87, label %89, label %88

88:                                               ; preds = %82
  store i32 5, ptr %17, align 4
  call void @llvm.lifetime.end.p0(i64 4, ptr %20) #6
  br label %186

89:                                               ; preds = %82
  call void @llvm.lifetime.start.p0(i64 8, ptr %21) #6
  %90 = load ptr, ptr %9, align 8, !tbaa !22
  %91 = getelementptr inbounds nuw %struct.ASuperCutContext, ptr %90, i32 0, i32 7
  %92 = load i32, ptr %20, align 4, !tbaa !25
  %93 = sext i32 %92 to i64
  %94 = getelementptr inbounds [10 x %struct.BiquadCoeffs], ptr %91, i64 0, i64 %93
  store ptr %94, ptr %21, align 8, !tbaa !65
  call void @llvm.lifetime.start.p0(i64 8, ptr %22) #6
  %95 = load ptr, ptr %21, align 8, !tbaa !65
  %96 = getelementptr inbounds nuw %struct.BiquadCoeffs, ptr %95, i32 0, i32 0
  %97 = load double, ptr %96, align 8, !tbaa !67
  store double %97, ptr %22, align 8, !tbaa !60
  call void @llvm.lifetime.start.p0(i64 8, ptr %23) #6
  %98 = load ptr, ptr %21, align 8, !tbaa !65
  %99 = getelementptr inbounds nuw %struct.BiquadCoeffs, ptr %98, i32 0, i32 1
  %100 = load double, ptr %99, align 8, !tbaa !71
  store double %100, ptr %23, align 8, !tbaa !60
  call void @llvm.lifetime.start.p0(i64 8, ptr %24) #6
  %101 = load ptr, ptr %21, align 8, !tbaa !65
  %102 = getelementptr inbounds nuw %struct.BiquadCoeffs, ptr %101, i32 0, i32 2
  %103 = load double, ptr %102, align 8, !tbaa !72
  store double %103, ptr %24, align 8, !tbaa !60
  call void @llvm.lifetime.start.p0(i64 8, ptr %25) #6
  %104 = load ptr, ptr %21, align 8, !tbaa !65
  %105 = getelementptr inbounds nuw %struct.BiquadCoeffs, ptr %104, i32 0, i32 3
  %106 = load double, ptr %105, align 8, !tbaa !73
  store double %106, ptr %25, align 8, !tbaa !60
  call void @llvm.lifetime.start.p0(i64 8, ptr %26) #6
  %107 = load ptr, ptr %21, align 8, !tbaa !65
  %108 = getelementptr inbounds nuw %struct.BiquadCoeffs, ptr %107, i32 0, i32 4
  %109 = load double, ptr %108, align 8, !tbaa !74
  store double %109, ptr %26, align 8, !tbaa !60
  call void @llvm.lifetime.start.p0(i64 8, ptr %27) #6
  %110 = load ptr, ptr %9, align 8, !tbaa !22
  %111 = getelementptr inbounds nuw %struct.ASuperCutContext, ptr %110, i32 0, i32 8
  %112 = load ptr, ptr %111, align 8, !tbaa !54
  %113 = getelementptr inbounds nuw %struct.AVFrame, ptr %112, i32 0, i32 2
  %114 = load ptr, ptr %113, align 8, !tbaa !61
  %115 = load i32, ptr %16, align 4, !tbaa !25
  %116 = sext i32 %115 to i64
  %117 = getelementptr inbounds ptr, ptr %114, i64 %116
  %118 = load ptr, ptr %117, align 8, !tbaa !24
  %119 = load i32, ptr %20, align 4, !tbaa !25
  %120 = mul nsw i32 %119, 2
  %121 = sext i32 %120 to i64
  %122 = getelementptr inbounds double, ptr %118, i64 %121
  store ptr %122, ptr %27, align 8, !tbaa !79
  call void @llvm.lifetime.start.p0(i64 4, ptr %28) #6
  store i32 0, ptr %28, align 4, !tbaa !25
  br label %123

123:                                              ; preds = %179, %89
  %124 = load i32, ptr %28, align 4, !tbaa !25
  %125 = load ptr, ptr %12, align 8, !tbaa !28
  %126 = getelementptr inbounds nuw %struct.AVFrame, ptr %125, i32 0, i32 5
  %127 = load i32, ptr %126, align 8, !tbaa !42
  %128 = icmp slt i32 %124, %127
  br i1 %128, label %130, label %129

129:                                              ; preds = %123
  store i32 8, ptr %17, align 4
  call void @llvm.lifetime.end.p0(i64 4, ptr %28) #6
  br label %182

130:                                              ; preds = %123
  call void @llvm.lifetime.start.p0(i64 8, ptr %29) #6
  %131 = load i32, ptr %20, align 4, !tbaa !25
  %132 = icmp ne i32 %131, 0
  br i1 %132, label %133, label %139

133:                                              ; preds = %130
  %134 = load ptr, ptr %19, align 8, !tbaa !79
  %135 = load i32, ptr %28, align 4, !tbaa !25
  %136 = sext i32 %135 to i64
  %137 = getelementptr inbounds double, ptr %134, i64 %136
  %138 = load double, ptr %137, align 8, !tbaa !60
  br label %147

139:                                              ; preds = %130
  %140 = load ptr, ptr %18, align 8, !tbaa !79
  %141 = load i32, ptr %28, align 4, !tbaa !25
  %142 = sext i32 %141 to i64
  %143 = getelementptr inbounds double, ptr %140, i64 %142
  %144 = load double, ptr %143, align 8, !tbaa !60
  %145 = load double, ptr %15, align 8, !tbaa !60
  %146 = fmul nsz double %144, %145
  br label %147

147:                                              ; preds = %139, %133
  %148 = phi nsz double [ %138, %133 ], [ %146, %139 ]
  store double %148, ptr %29, align 8, !tbaa !60
  call void @llvm.lifetime.start.p0(i64 8, ptr %30) #6
  %149 = load double, ptr %29, align 8, !tbaa !60
  %150 = load double, ptr %24, align 8, !tbaa !60
  %151 = load ptr, ptr %27, align 8, !tbaa !79
  %152 = getelementptr inbounds double, ptr %151, i64 0
  %153 = load double, ptr %152, align 8, !tbaa !60
  %154 = call nsz double @llvm.fmuladd.f64(double %149, double %150, double %153)
  store double %154, ptr %30, align 8, !tbaa !60
  %155 = load double, ptr %25, align 8, !tbaa !60
  %156 = load double, ptr %29, align 8, !tbaa !60
  %157 = load ptr, ptr %27, align 8, !tbaa !79
  %158 = getelementptr inbounds double, ptr %157, i64 1
  %159 = load double, ptr %158, align 8, !tbaa !60
  %160 = call nsz double @llvm.fmuladd.f64(double %155, double %156, double %159)
  %161 = load double, ptr %22, align 8, !tbaa !60
  %162 = load double, ptr %30, align 8, !tbaa !60
  %163 = call nsz double @llvm.fmuladd.f64(double %161, double %162, double %160)
  %164 = load ptr, ptr %27, align 8, !tbaa !79
  %165 = getelementptr inbounds double, ptr %164, i64 0
  store double %163, ptr %165, align 8, !tbaa !60
  %166 = load double, ptr %26, align 8, !tbaa !60
  %167 = load double, ptr %29, align 8, !tbaa !60
  %168 = load double, ptr %23, align 8, !tbaa !60
  %169 = load double, ptr %30, align 8, !tbaa !60
  %170 = fmul nsz double %168, %169
  %171 = call nsz double @llvm.fmuladd.f64(double %166, double %167, double %170)
  %172 = load ptr, ptr %27, align 8, !tbaa !79
  %173 = getelementptr inbounds double, ptr %172, i64 1
  store double %171, ptr %173, align 8, !tbaa !60
  %174 = load double, ptr %30, align 8, !tbaa !60
  %175 = load ptr, ptr %19, align 8, !tbaa !79
  %176 = load i32, ptr %28, align 4, !tbaa !25
  %177 = sext i32 %176 to i64
  %178 = getelementptr inbounds double, ptr %175, i64 %177
  store double %174, ptr %178, align 8, !tbaa !60
  call void @llvm.lifetime.end.p0(i64 8, ptr %30) #6
  call void @llvm.lifetime.end.p0(i64 8, ptr %29) #6
  br label %179

179:                                              ; preds = %147
  %180 = load i32, ptr %28, align 4, !tbaa !25
  %181 = add nsw i32 %180, 1
  store i32 %181, ptr %28, align 4, !tbaa !25
  br label %123, !llvm.loop !80

182:                                              ; preds = %129
  call void @llvm.lifetime.end.p0(i64 8, ptr %27) #6
  call void @llvm.lifetime.end.p0(i64 8, ptr %26) #6
  call void @llvm.lifetime.end.p0(i64 8, ptr %25) #6
  call void @llvm.lifetime.end.p0(i64 8, ptr %24) #6
  call void @llvm.lifetime.end.p0(i64 8, ptr %23) #6
  call void @llvm.lifetime.end.p0(i64 8, ptr %22) #6
  call void @llvm.lifetime.end.p0(i64 8, ptr %21) #6
  br label %183

183:                                              ; preds = %182
  %184 = load i32, ptr %20, align 4, !tbaa !25
  %185 = add nsw i32 %184, 1
  store i32 %185, ptr %20, align 4, !tbaa !25
  br label %82, !llvm.loop !81

186:                                              ; preds = %88
  call void @llvm.lifetime.end.p0(i64 8, ptr %19) #6
  call void @llvm.lifetime.end.p0(i64 8, ptr %18) #6
  br label %187

187:                                              ; preds = %186
  %188 = load i32, ptr %16, align 4, !tbaa !25
  %189 = add nsw i32 %188, 1
  store i32 %189, ptr %16, align 4, !tbaa !25
  br label %62, !llvm.loop !82

190:                                              ; preds = %66
  store i32 1, ptr %17, align 4
  call void @llvm.lifetime.end.p0(i64 8, ptr %15) #6
  call void @llvm.lifetime.end.p0(i64 4, ptr %14) #6
  call void @llvm.lifetime.end.p0(i64 4, ptr %13) #6
  call void @llvm.lifetime.end.p0(i64 8, ptr %12) #6
  call void @llvm.lifetime.end.p0(i64 8, ptr %11) #6
  call void @llvm.lifetime.end.p0(i64 8, ptr %10) #6
  call void @llvm.lifetime.end.p0(i64 8, ptr %9) #6
  ret i32 0
}