; Function Attrs: nofree norecurse nosync nounwind memory(readwrite, inaccessiblemem: none) uwtable
define internal noundef i32 @filter_channels_dblp(ptr noundef readonly captures(none) %0, ptr noundef readonly captures(none) %1, i32 noundef %2, i32 noundef %3) #5 {
  %5 = getelementptr inbounds nuw i8, ptr %0, i64 72
  %6 = load ptr, ptr %5, align 8, !tbaa !4
  %7 = load ptr, ptr %1, align 8, !tbaa !43
  %8 = getelementptr inbounds nuw i8, ptr %7, i64 388
  %9 = load i32, ptr %8, align 4, !tbaa !50
  %10 = mul nsw i32 %9, %2
  %11 = sdiv i32 %10, %3
  %12 = add nsw i32 %2, 1
  %13 = mul nsw i32 %9, %12
  %14 = sdiv i32 %13, %3
  %15 = getelementptr inbounds nuw i8, ptr %6, i64 16
  %16 = load double, ptr %15, align 8, !tbaa !51
  %17 = icmp slt i32 %11, %14
  br i1 %17, label %.lr.ph, label %._crit_edge

.lr.ph:                                           ; preds = %4
  %18 = getelementptr inbounds nuw i8, ptr %1, i64 8
  %19 = load ptr, ptr %18, align 8, !tbaa !45
  %20 = getelementptr inbounds nuw i8, ptr %7, i64 96
  %21 = load ptr, ptr %20, align 8, !tbaa !52
  %22 = getelementptr inbounds nuw i8, ptr %19, i64 96
  %23 = load ptr, ptr %22, align 8, !tbaa !52
  %24 = getelementptr inbounds nuw i8, ptr %6, i64 36
  %25 = load i32, ptr %24, align 4, !tbaa !53
  %26 = icmp sgt i32 %25, 0
  %27 = getelementptr inbounds nuw i8, ptr %6, i64 48
  br i1 %26, label %.lr.ph.split.us, label %._crit_edge

.lr.ph.split.us:                                  ; preds = %.lr.ph
  %28 = getelementptr inbounds nuw i8, ptr %7, i64 112
  %29 = getelementptr inbounds nuw i8, ptr %6, i64 448
  %30 = load ptr, ptr %29, align 8, !tbaa !49
  %31 = getelementptr inbounds nuw i8, ptr %30, i64 96
  %32 = load ptr, ptr %31, align 8, !tbaa !52
  %33 = load i32, ptr %28, align 8, !tbaa !37
  %34 = icmp sgt i32 %33, 0
  br i1 %34, label %.lr.ph62.us.us.preheader, label %._crit_edge

.lr.ph62.us.us.preheader:                         ; preds = %.lr.ph.split.us
  %35 = sext i32 %11 to i64
  %wide.trip.count88 = sext i32 %14 to i64
  %wide.trip.count83 = zext nneg i32 %25 to i64
  %wide.trip.count = zext nneg i32 %33 to i64
  %wide.trip.count78 = zext nneg i32 %33 to i64
  br label %.lr.ph62.us.us

.lr.ph62.us.us:                                   ; preds = %.lr.ph62.us.us.preheader, %._crit_edge63.split.us.us.us
  %indvars.iv85 = phi i64 [ %35, %.lr.ph62.us.us.preheader ], [ %indvars.iv.next86, %._crit_edge63.split.us.us.us ]
  %36 = getelementptr inbounds ptr, ptr %21, i64 %indvars.iv85
  %37 = load ptr, ptr %36, align 8, !tbaa !54
  %38 = getelementptr inbounds ptr, ptr %23, i64 %indvars.iv85
  %39 = load ptr, ptr %38, align 8, !tbaa !54
  %40 = getelementptr inbounds ptr, ptr %32, i64 %indvars.iv85
  %41 = load ptr, ptr %40, align 8, !tbaa !54
  br label %.lr.ph.us.us.us

.lr.ph.us.us.us:                                  ; preds = %._crit_edge.us.us.us, %.lr.ph62.us.us
  %indvars.iv80 = phi i64 [ %indvars.iv.next81, %._crit_edge.us.us.us ], [ 0, %.lr.ph62.us.us ]
  %42 = getelementptr inbounds nuw [10 x %struct.BiquadCoeffs], ptr %27, i64 0, i64 %indvars.iv80
  %43 = load double, ptr %42, align 8, !tbaa !55
  %44 = getelementptr inbounds nuw i8, ptr %42, i64 8
  %45 = load double, ptr %44, align 8, !tbaa !57
  %46 = getelementptr inbounds nuw i8, ptr %42, i64 16
  %47 = load double, ptr %46, align 8, !tbaa !58
  %48 = getelementptr inbounds nuw i8, ptr %42, i64 24
  %49 = load double, ptr %48, align 8, !tbaa !59
  %50 = getelementptr inbounds nuw i8, ptr %42, i64 32
  %51 = load double, ptr %50, align 8, !tbaa !60
  %.idx = shl nuw nsw i64 %indvars.iv80, 4
  %52 = getelementptr inbounds nuw i8, ptr %41, i64 %.idx
  %.not.us.us.us = icmp eq i64 %indvars.iv80, 0
  %53 = getelementptr inbounds nuw i8, ptr %52, i64 8
  br i1 %.not.us.us.us, label %.lr.ph.split.us.us.us.us, label %.lr.ph.split.us66.us.us

.lr.ph.split.us66.us.us:                          ; preds = %.lr.ph.us.us.us, %.lr.ph.split.us66.us.us
  %indvars.iv = phi i64 [ %indvars.iv.next, %.lr.ph.split.us66.us.us ], [ 0, %.lr.ph.us.us.us ]
  %54 = getelementptr inbounds nuw double, ptr %39, i64 %indvars.iv
  %55 = load double, ptr %54, align 8, !tbaa !67
  %56 = load double, ptr %52, align 8, !tbaa !67
  %57 = tail call nsz double @llvm.fmuladd.f64(double %55, double %47, double %56)
  %58 = load double, ptr %53, align 8, !tbaa !67
  %59 = tail call nsz double @llvm.fmuladd.f64(double %49, double %55, double %58)
  %60 = tail call nsz double @llvm.fmuladd.f64(double %43, double %57, double %59)
  store double %60, ptr %52, align 8, !tbaa !67
  %61 = fmul nsz double %45, %57
  %62 = tail call nsz double @llvm.fmuladd.f64(double %51, double %55, double %61)
  store double %62, ptr %53, align 8, !tbaa !67
  store double %57, ptr %54, align 8, !tbaa !67
  %indvars.iv.next = add nuw nsw i64 %indvars.iv, 1
  %exitcond.not = icmp eq i64 %indvars.iv.next, %wide.trip.count
  br i1 %exitcond.not, label %._crit_edge.us.us.us, label %.lr.ph.split.us66.us.us, !llvm.loop !68

._crit_edge.us.us.us:                             ; preds = %.lr.ph.split.us66.us.us, %.lr.ph.split.us.us.us.us
  %indvars.iv.next81 = add nuw nsw i64 %indvars.iv80, 1
  %exitcond84.not = icmp eq i64 %indvars.iv.next81, %wide.trip.count83
  br i1 %exitcond84.not, label %._crit_edge63.split.us.us.us, label %.lr.ph.us.us.us, !llvm.loop !69

.lr.ph.split.us.us.us.us:                         ; preds = %.lr.ph.us.us.us, %.lr.ph.split.us.us.us.us
  %indvars.iv75 = phi i64 [ %indvars.iv.next76, %.lr.ph.split.us.us.us.us ], [ 0, %.lr.ph.us.us.us ]
  %63 = getelementptr inbounds nuw double, ptr %37, i64 %indvars.iv75
  %64 = load double, ptr %63, align 8, !tbaa !67
  %65 = fmul nsz double %16, %64
  %66 = load double, ptr %52, align 8, !tbaa !67
  %67 = tail call nsz double @llvm.fmuladd.f64(double %65, double %47, double %66)
  %68 = load double, ptr %53, align 8, !tbaa !67
  %69 = tail call nsz double @llvm.fmuladd.f64(double %49, double %65, double %68)
  %70 = tail call nsz double @llvm.fmuladd.f64(double %43, double %67, double %69)
  store double %70, ptr %52, align 8, !tbaa !67
  %71 = fmul nsz double %45, %67
  %72 = tail call nsz double @llvm.fmuladd.f64(double %51, double %65, double %71)
  store double %72, ptr %53, align 8, !tbaa !67
  %73 = getelementptr inbounds nuw double, ptr %39, i64 %indvars.iv75
  store double %67, ptr %73, align 8, !tbaa !67
  %indvars.iv.next76 = add nuw nsw i64 %indvars.iv75, 1
  %exitcond79.not = icmp eq i64 %indvars.iv.next76, %wide.trip.count78
  br i1 %exitcond79.not, label %._crit_edge.us.us.us, label %.lr.ph.split.us.us.us.us, !llvm.loop !68

._crit_edge63.split.us.us.us:                     ; preds = %._crit_edge.us.us.us
  %indvars.iv.next86 = add nsw i64 %indvars.iv85, 1
  %exitcond89.not = icmp eq i64 %indvars.iv.next86, %wide.trip.count88
  br i1 %exitcond89.not, label %._crit_edge, label %.lr.ph62.us.us, !llvm.loop !70

._crit_edge:                                      ; preds = %._crit_edge63.split.us.us.us, %.lr.ph.split.us, %.lr.ph, %4
  ret i32 0
}